target datalayout = "e-m:e-p270:32:32-p271:32:32-p272:64:64-i64:64-i128:128-f80:128-n8:16:32:64-S128"
target triple = "x86_64-pc-linux-gnu"

%"class.ncnn::Convolution1D" = type { %"class.ncnn::Layer", i32, i32, i32, i32, i32, i32, float, i32, i32, i32, %"class.ncnn::Mat", i32, %"class.ncnn::Mat", %"class.ncnn::Mat" }
%"class.ncnn::Layer" = type { ptr, i8, i8, i8, i8, i8, i8, i8, i8, i8, i8, i8, i8, i8, i8, i8, i8, i8, i8, i8, i8, i32, ptr, i32, %"class.std::__cxx11::basic_string", %"class.std::__cxx11::basic_string", %"class.std::vector", %"class.std::vector", %"class.std::vector.3", %"class.std::vector.3" }
%"class.std::__cxx11::basic_string" = type { %"struct.std::__cxx11::basic_string<char>::_Alloc_hider", i64, %union.anon }
%"struct.std::__cxx11::basic_string<char>::_Alloc_hider" = type { ptr }
%union.anon = type { i64, [8 x i8] }
%"class.std::vector" = type { %"struct.std::_Vector_base" }
%"struct.std::_Vector_base" = type { %"struct.std::_Vector_base<int, std::allocator<int>>::_Vector_impl" }
%"struct.std::_Vector_base<int, std::allocator<int>>::_Vector_impl" = type { %"struct.std::_Vector_base<int, std::allocator<int>>::_Vector_impl_data" }
%"struct.std::_Vector_base<int, std::allocator<int>>::_Vector_impl_data" = type { ptr, ptr, ptr }
%"class.std::vector.3" = type { %"struct.std::_Vector_base.4" }
%"struct.std::_Vector_base.4" = type { %"struct.std::_Vector_base<ncnn::Mat, std::allocator<ncnn::Mat>>::_Vector_impl" }
%"struct.std::_Vector_base<ncnn::Mat, std::allocator<ncnn::Mat>>::_Vector_impl" = type { %"struct.std::_Vector_base<ncnn::Mat, std::allocator<ncnn::Mat>>::_Vector_impl_data" }
%"struct.std::_Vector_base<ncnn::Mat, std::allocator<ncnn::Mat>>::_Vector_impl_data" = type { ptr, ptr, ptr }
%"class.ncnn::Mat" = type { ptr, ptr, i64, i32, ptr, i32, i32, i32, i32, i32, i64 }
%"class.ncnn::Option" = type { i8, i32, ptr, ptr, i32, i8, i8, i8, i8, i8, i8, i8, i8, i8, i8, i8, i8, i8, i8, i8, i8, i8, i8, i8, i8, i32, i8, i8, i8, i8, i8, i8, i8, i8, i8, i8, i8, i8 }

; Function Attrs: mustprogress uwtable
define hidden void @_ZNK4ncnn13Convolution1D12make_paddingERKNS_3MatERS1_RKNS_6OptionE(ptr noundef nonnull align 8 dereferenceable(472) %0, ptr noundef nonnull align 8 dereferenceable(72) %1, ptr noundef nonnull align 8 dereferenceable(72) %2, ptr noundef nonnull align 8 dereferenceable(64) %3) #0 align 2 {
  %5 = alloca ptr, align 8
  %6 = alloca ptr, align 8
  %7 = alloca ptr, align 8
  %8 = alloca ptr, align 8
  store ptr %0, ptr %5, align 8
  store ptr %1, ptr %6, align 8
  store ptr %2, ptr %7, align 8
  store ptr %3, ptr %8, align 8
  %9 = load ptr, ptr %5, align 8
  %10 = load ptr, ptr %6, align 8
  %11 = load ptr, ptr %7, align 8
  %12 = getelementptr inbounds nuw %"class.ncnn::Convolution1D", ptr %9, i32 0, i32 2
  %13 = load i32, ptr %12, align 4
  %14 = load ptr, ptr %8, align 8
  call void @_ZNK4ncnn13Convolution1D12make_paddingERKNS_3MatERS1_iRKNS_6OptionE(ptr noundef nonnull align 8 dereferenceable(472) %9, ptr noundef nonnull align 8 dereferenceable(72) %10, ptr noundef nonnull align 8 dereferenceable(72) %11, i32 noundef %13, ptr noundef nonnull align 8 dereferenceable(64) %14)
  ret void
}

; Function Attrs: mustprogress uwtable
define hidden noundef i32 @_ZNK4ncnn13Convolution1D7forwardERKNS_3MatERS1_RKNS_6OptionE(ptr noundef nonnull align 8 dereferenceable(472) %0, ptr noundef nonnull align 8 dereferenceable(72) %1, ptr noundef nonnull align 8 dereferenceable(72) %2, ptr noundef nonnull align 8 dereferenceable(64) %3) unnamed_addr #0 align 2 personality ptr @__gxx_personality_v0 {
  %5 = alloca ptr, align 8
  %6 = alloca ptr, align 8
  %7 = alloca ptr, align 8
  %8 = alloca ptr, align 8
  %9 = alloca ptr, align 8
  %10 = alloca i32, align 4
  %11 = alloca i32, align 4
  %12 = alloca ptr, align 8
  %13 = alloca i32, align 4
  %14 = alloca i32, align 4
  %15 = alloca ptr, align 8
  %16 = alloca ptr, align 8
  %17 = alloca ptr, align 8
  %18 = alloca ptr, align 8
  %19 = alloca ptr, align 8
  %20 = alloca i32, align 4
  %21 = alloca ptr, align 8
  %22 = alloca ptr, align 8
  %23 = alloca ptr, align 8
  %24 = alloca ptr, align 8
  %25 = alloca %"class.ncnn::Mat", align 8
  %26 = alloca ptr, align 8
  %27 = alloca i32, align 4
  %28 = alloca i32, align 4
  %29 = alloca i32, align 4
  %30 = alloca i64, align 8
  %31 = alloca i32, align 4
  %32 = alloca i32, align 4
  %33 = alloca i32, align 4
  store ptr %0, ptr %21, align 8
  store ptr %1, ptr %22, align 8
  store ptr %2, ptr %23, align 8
  store ptr %3, ptr %24, align 8
  %34 = load ptr, ptr %21, align 8
  store ptr %25, ptr %19, align 8
  %35 = load ptr, ptr %19, align 8
  store ptr null, ptr %35, align 8
  %36 = getelementptr inbounds nuw %"class.ncnn::Mat", ptr %35, i32 0, i32 1
  store ptr null, ptr %36, align 8
  %37 = getelementptr inbounds nuw %"class.ncnn::Mat", ptr %35, i32 0, i32 2
  store i64 0, ptr %37, align 8
  %38 = getelementptr inbounds nuw %"class.ncnn::Mat", ptr %35, i32 0, i32 3
  store i32 0, ptr %38, align 8
  %39 = getelementptr inbounds nuw %"class.ncnn::Mat", ptr %35, i32 0, i32 4
  store ptr null, ptr %39, align 8
  %40 = getelementptr inbounds nuw %"class.ncnn::Mat", ptr %35, i32 0, i32 5
  store i32 0, ptr %40, align 8
  %41 = getelementptr inbounds nuw %"class.ncnn::Mat", ptr %35, i32 0, i32 6
  store i32 0, ptr %41, align 4
  %42 = getelementptr inbounds nuw %"class.ncnn::Mat", ptr %35, i32 0, i32 7
  store i32 0, ptr %42, align 8
  %43 = getelementptr inbounds nuw %"class.ncnn::Mat", ptr %35, i32 0, i32 8
  store i32 0, ptr %43, align 4
  %44 = getelementptr inbounds nuw %"class.ncnn::Mat", ptr %35, i32 0, i32 9
  store i32 0, ptr %44, align 8
  %45 = getelementptr inbounds nuw %"class.ncnn::Mat", ptr %35, i32 0, i32 10
  store i64 0, ptr %45, align 8
  %46 = load ptr, ptr %22, align 8
  %47 = load ptr, ptr %24, align 8
  invoke void @_ZNK4ncnn13Convolution1D12make_paddingERKNS_3MatERS1_RKNS_6OptionE(ptr noundef nonnull align 8 dereferenceable(472) %34, ptr noundef nonnull align 8 dereferenceable(72) %46, ptr noundef nonnull align 8 dereferenceable(72) %25, ptr noundef nonnull align 8 dereferenceable(64) %47)
          to label %48 unwind label %65

48:                                               ; preds = %4
  store ptr %25, ptr %15, align 8
  %49 = load ptr, ptr %15, align 8
  %50 = load ptr, ptr %49, align 8
  %51 = icmp eq ptr %50, null
  br i1 %51, label %61, label %52

52:                                               ; preds = %48
  store ptr %49, ptr %6, align 8
  %53 = load ptr, ptr %6, align 8
  %54 = getelementptr inbounds nuw %"class.ncnn::Mat", ptr %53, i32 0, i32 10
  %55 = load i64, ptr %54, align 8
  %56 = getelementptr inbounds nuw %"class.ncnn::Mat", ptr %53, i32 0, i32 9
  %57 = load i32, ptr %56, align 8
  %58 = sext i32 %57 to i64
  %59 = mul i64 %55, %58
  %60 = icmp eq i64 %59, 0
  br label %61

61:                                               ; preds = %52, %48
  %62 = phi i1 [ true, %48 ], [ %60, %52 ]
  br label %63

63:                                               ; preds = %61
  br i1 %62, label %64, label %115

64:                                               ; preds = %63
  store i32 -100, ptr %20, align 4
  store i32 1, ptr %28, align 4
  br label %181

65:                                               ; preds = %160, %115, %4
  %66 = landingpad { ptr, i32 }
          cleanup
  %67 = extractvalue { ptr, i32 } %66, 0
  store ptr %67, ptr %26, align 8
  %68 = extractvalue { ptr, i32 } %66, 1
  store i32 %68, ptr %27, align 4
  store ptr %25, ptr %17, align 8
  %69 = load ptr, ptr %17, align 8
  store ptr %69, ptr %12, align 8
  %70 = load ptr, ptr %12, align 8
  %71 = getelementptr inbounds nuw %"class.ncnn::Mat", ptr %70, i32 0, i32 1
  %72 = load ptr, ptr %71, align 8
  %73 = icmp ne ptr %72, null
  br i1 %73, label %74, label %101

74:                                               ; preds = %65
  %75 = getelementptr inbounds nuw %"class.ncnn::Mat", ptr %70, i32 0, i32 1
  %76 = load ptr, ptr %75, align 8
  store i32 -1, ptr %13, align 4
  %77 = load i32, ptr %13, align 4
  %78 = atomicrmw add ptr %76, i32 %77 acq_rel, align 4
  store i32 %78, ptr %14, align 4
  %79 = load i32, ptr %14, align 4
  %80 = icmp eq i32 %79, 1
  br i1 %80, label %81, label %101

81:                                               ; preds = %74
  %82 = getelementptr inbounds nuw %"class.ncnn::Mat", ptr %70, i32 0, i32 4
  %83 = load ptr, ptr %82, align 8
  %84 = icmp ne ptr %83, null
  br i1 %84, label %85, label %93

85:                                               ; preds = %81
  %86 = getelementptr inbounds nuw %"class.ncnn::Mat", ptr %70, i32 0, i32 4
  %87 = load ptr, ptr %86, align 8
  %88 = load ptr, ptr %70, align 8
  %89 = load ptr, ptr %87, align 8
  %90 = getelementptr inbounds ptr, ptr %89, i64 3
  %91 = load ptr, ptr %90, align 8
  invoke void %91(ptr noundef nonnull align 8 dereferenceable(8) %87, ptr noundef %88)
          to label %92 unwind label %111

92:                                               ; preds = %85
  br label %100

93:                                               ; preds = %81
  %94 = load ptr, ptr %70, align 8
  store ptr %94, ptr %7, align 8
  %95 = load ptr, ptr %7, align 8
  %96 = icmp ne ptr %95, null
  br i1 %96, label %97, label %99

97:                                               ; preds = %93
  %98 = load ptr, ptr %7, align 8
  call void @free(ptr noundef %98) #8
  br label %99

99:                                               ; preds = %97, %93
  br label %100

100:                                              ; preds = %99, %92
  br label %101

101:                                              ; preds = %100, %74, %65
  store ptr null, ptr %70, align 8
  %102 = getelementptr inbounds nuw %"class.ncnn::Mat", ptr %70, i32 0, i32 2
  store i64 0, ptr %102, align 8
  %103 = getelementptr inbounds nuw %"class.ncnn::Mat", ptr %70, i32 0, i32 3
  store i32 0, ptr %103, align 8
  %104 = getelementptr inbounds nuw %"class.ncnn::Mat", ptr %70, i32 0, i32 5
  store i32 0, ptr %104, align 8
  %105 = getelementptr inbounds nuw %"class.ncnn::Mat", ptr %70, i32 0, i32 6
  store i32 0, ptr %105, align 4
  %106 = getelementptr inbounds nuw %"class.ncnn::Mat", ptr %70, i32 0, i32 7
  store i32 0, ptr %106, align 8
  %107 = getelementptr inbounds nuw %"class.ncnn::Mat", ptr %70, i32 0, i32 8
  store i32 0, ptr %107, align 4
  %108 = getelementptr inbounds nuw %"class.ncnn::Mat", ptr %70, i32 0, i32 9
  store i32 0, ptr %108, align 8
  %109 = getelementptr inbounds nuw %"class.ncnn::Mat", ptr %70, i32 0, i32 10
  store i64 0, ptr %109, align 8
  %110 = getelementptr inbounds nuw %"class.ncnn::Mat", ptr %70, i32 0, i32 1
  store ptr null, ptr %110, align 8
  br label %114

111:                                              ; preds = %85
  %112 = landingpad { ptr, i32 }
          catch ptr null
  %113 = extractvalue { ptr, i32 } %112, 0
  call void @__clang_call_terminate(ptr %113) #9
  unreachable

114:                                              ; preds = %101
  br label %229

115:                                              ; preds = %63
  %116 = getelementptr inbounds nuw %"class.ncnn::Mat", ptr %25, i32 0, i32 6
  %117 = load i32, ptr %116, align 4
  store i32 %117, ptr %29, align 4
  %118 = getelementptr inbounds nuw %"class.ncnn::Mat", ptr %25, i32 0, i32 2
  %119 = load i64, ptr %118, align 8
  store i64 %119, ptr %30, align 8
  %120 = getelementptr inbounds nuw %"class.ncnn::Convolution1D", ptr %34, i32 0, i32 3
  %121 = load i32, ptr %120, align 8
  %122 = getelementptr inbounds nuw %"class.ncnn::Convolution1D", ptr %34, i32 0, i32 2
  %123 = load i32, ptr %122, align 4
  %124 = sub nsw i32 %123, 1
  %125 = mul nsw i32 %121, %124
  %126 = add nsw i32 %125, 1
  store i32 %126, ptr %31, align 4
  %127 = load i32, ptr %29, align 4
  %128 = load i32, ptr %31, align 4
  %129 = sub nsw i32 %127, %128
  %130 = getelementptr inbounds nuw %"class.ncnn::Convolution1D", ptr %34, i32 0, i32 4
  %131 = load i32, ptr %130, align 4
  %132 = sdiv i32 %129, %131
  %133 = add nsw i32 %132, 1
  store i32 %133, ptr %32, align 4
  %134 = load ptr, ptr %23, align 8
  %135 = load i32, ptr %32, align 4
  %136 = getelementptr inbounds nuw %"class.ncnn::Convolution1D", ptr %34, i32 0, i32 1
  %137 = load i32, ptr %136, align 8
  %138 = load i64, ptr %30, align 8
  %139 = load ptr, ptr %24, align 8
  %140 = getelementptr inbounds nuw %"class.ncnn::Option", ptr %139, i32 0, i32 2
  %141 = load ptr, ptr %140, align 8
  invoke void @_ZN4ncnn3Mat6createEiimPNS_9AllocatorE(ptr noundef nonnull align 8 dereferenceable(72) %134, i32 noundef %135, i32 noundef %137, i64 noundef %138, ptr noundef %141)
          to label %142 unwind label %65

142:                                              ; preds = %115
  %143 = load ptr, ptr %23, align 8
  store ptr %143, ptr %16, align 8
  %144 = load ptr, ptr %16, align 8
  %145 = load ptr, ptr %144, align 8
  %146 = icmp eq ptr %145, null
  br i1 %146, label %156, label %147

147:                                              ; preds = %142
  store ptr %144, ptr %5, align 8
  %148 = load ptr, ptr %5, align 8
  %149 = getelementptr inbounds nuw %"class.ncnn::Mat", ptr %148, i32 0, i32 10
  %150 = load i64, ptr %149, align 8
  %151 = getelementptr inbounds nuw %"class.ncnn::Mat", ptr %148, i32 0, i32 9
  %152 = load i32, ptr %151, align 8
  %153 = sext i32 %152 to i64
  %154 = mul i64 %150, %153
  %155 = icmp eq i64 %154, 0
  br label %156

156:                                              ; preds = %147, %142
  %157 = phi i1 [ true, %142 ], [ %155, %147 ]
  br label %158

158:                                              ; preds = %156
  br i1 %157, label %159, label %160

159:                                              ; preds = %158
  store i32 -100, ptr %20, align 4
  store i32 1, ptr %28, align 4
  br label %181

160:                                              ; preds = %158
  %161 = load ptr, ptr %23, align 8
  %162 = getelementptr inbounds nuw %"class.ncnn::Convolution1D", ptr %34, i32 0, i32 13
  %163 = getelementptr inbounds nuw %"class.ncnn::Convolution1D", ptr %34, i32 0, i32 14
  %164 = getelementptr inbounds nuw %"class.ncnn::Convolution1D", ptr %34, i32 0, i32 2
  %165 = load i32, ptr %164, align 4
  %166 = getelementptr inbounds nuw %"class.ncnn::Convolution1D", ptr %34, i32 0, i32 4
  %167 = load i32, ptr %166, align 4
  %168 = getelementptr inbounds nuw %"class.ncnn::Convolution1D", ptr %34, i32 0, i32 3
  %169 = load i32, ptr %168, align 8
  %170 = getelementptr inbounds nuw %"class.ncnn::Convolution1D", ptr %34, i32 0, i32 10
  %171 = load i32, ptr %170, align 4
  %172 = getelementptr inbounds nuw %"class.ncnn::Convolution1D", ptr %34, i32 0, i32 11
  %173 = load ptr, ptr %24, align 8
  %174 = invoke noundef i32 @_ZN4ncnnL13convolution1dERKNS_3MatERS0_S2_S2_iiiiS2_RKNS_6OptionE(ptr noundef nonnull align 8 dereferenceable(72) %25, ptr noundef nonnull align 8 dereferenceable(72) %161, ptr noundef nonnull align 8 dereferenceable(72) %162, ptr noundef nonnull align 8 dereferenceable(72) %163, i32 noundef %165, i32 noundef %167, i32 noundef %169, i32 noundef %171, ptr noundef nonnull align 8 dereferenceable(72) %172, ptr noundef nonnull align 8 dereferenceable(64) %173)
          to label %175 unwind label %65

175:                                              ; preds = %160
  store i32 %174, ptr %33, align 4
  %176 = load i32, ptr %33, align 4
  %177 = icmp ne i32 %176, 0
  br i1 %177, label %178, label %180

178:                                              ; preds = %175
  %179 = load i32, ptr %33, align 4
  store i32 %179, ptr %20, align 4
  store i32 1, ptr %28, align 4
  br label %181

180:                                              ; preds = %175
  store i32 0, ptr %20, align 4
  store i32 1, ptr %28, align 4
  br label %181

181:                                              ; preds = %180, %178, %159, %64
  store ptr %25, ptr %18, align 8
  %182 = load ptr, ptr %18, align 8
  store ptr %182, ptr %9, align 8
  %183 = load ptr, ptr %9, align 8
  %184 = getelementptr inbounds nuw %"class.ncnn::Mat", ptr %183, i32 0, i32 1
  %185 = load ptr, ptr %184, align 8
  %186 = icmp ne ptr %185, null
  br i1 %186, label %187, label %214

187:                                              ; preds = %181
  %188 = getelementptr inbounds nuw %"class.ncnn::Mat", ptr %183, i32 0, i32 1
  %189 = load ptr, ptr %188, align 8
  store i32 -1, ptr %10, align 4
  %190 = load i32, ptr %10, align 4
  %191 = atomicrmw add ptr %189, i32 %190 acq_rel, align 4
  store i32 %191, ptr %11, align 4
  %192 = load i32, ptr %11, align 4
  %193 = icmp eq i32 %192, 1
  br i1 %193, label %194, label %214

194:                                              ; preds = %187
  %195 = getelementptr inbounds nuw %"class.ncnn::Mat", ptr %183, i32 0, i32 4
  %196 = load ptr, ptr %195, align 8
  %197 = icmp ne ptr %196, null
  br i1 %197, label %198, label %206

198:                                              ; preds = %194
  %199 = getelementptr inbounds nuw %"class.ncnn::Mat", ptr %183, i32 0, i32 4
  %200 = load ptr, ptr %199, align 8
  %201 = load ptr, ptr %183, align 8
  %202 = load ptr, ptr %200, align 8
  %203 = getelementptr inbounds ptr, ptr %202, i64 3
  %204 = load ptr, ptr %203, align 8
  invoke void %204(ptr noundef nonnull align 8 dereferenceable(8) %200, ptr noundef %201)
          to label %205 unwind label %224

205:                                              ; preds = %198
  br label %213

206:                                              ; preds = %194
  %207 = load ptr, ptr %183, align 8
  store ptr %207, ptr %8, align 8
  %208 = load ptr, ptr %8, align 8
  %209 = icmp ne ptr %208, null
  br i1 %209, label %210, label %212

210:                                              ; preds = %206
  %211 = load ptr, ptr %8, align 8
  call void @free(ptr noundef %211) #8
  br label %212

212:                                              ; preds = %210, %206
  br label %213

213:                                              ; preds = %212, %205
  br label %214

214:                                              ; preds = %213, %187, %181
  store ptr null, ptr %183, align 8
  %215 = getelementptr inbounds nuw %"class.ncnn::Mat", ptr %183, i32 0, i32 2
  store i64 0, ptr %215, align 8
  %216 = getelementptr inbounds nuw %"class.ncnn::Mat", ptr %183, i32 0, i32 3
  store i32 0, ptr %216, align 8
  %217 = getelementptr inbounds nuw %"class.ncnn::Mat", ptr %183, i32 0, i32 5
  store i32 0, ptr %217, align 8
  %218 = getelementptr inbounds nuw %"class.ncnn::Mat", ptr %183, i32 0, i32 6
  store i32 0, ptr %218, align 4
  %219 = getelementptr inbounds nuw %"class.ncnn::Mat", ptr %183, i32 0, i32 7
  store i32 0, ptr %219, align 8
  %220 = getelementptr inbounds nuw %"class.ncnn::Mat", ptr %183, i32 0, i32 8
  store i32 0, ptr %220, align 4
  %221 = getelementptr inbounds nuw %"class.ncnn::Mat", ptr %183, i32 0, i32 9
  store i32 0, ptr %221, align 8
  %222 = getelementptr inbounds nuw %"class.ncnn::Mat", ptr %183, i32 0, i32 10
  store i64 0, ptr %222, align 8
  %223 = getelementptr inbounds nuw %"class.ncnn::Mat", ptr %183, i32 0, i32 1
  store ptr null, ptr %223, align 8
  br label %227

224:                                              ; preds = %198
  %225 = landingpad { ptr, i32 }
          catch ptr null
  %226 = extractvalue { ptr, i32 } %225, 0
  call void @__clang_call_terminate(ptr %226) #9
  unreachable

227:                                              ; preds = %214
  %228 = load i32, ptr %20, align 4
  ret i32 %228

229:                                              ; preds = %114
  %230 = load ptr, ptr %26, align 8
  %231 = load i32, ptr %27, align 4
  %232 = insertvalue { ptr, i32 } poison, ptr %230, 0
  %233 = insertvalue { ptr, i32 } %232, i32 %231, 1
  resume { ptr, i32 } %233
}