; Function Attrs: mustprogress uwtable
define hidden noundef range(i32 -100, 1) i32 @_ZNK4ncnn13Convolution1D7forwardERKNS_3MatERS1_RKNS_6OptionE(ptr nocapture noundef nonnull readonly align 8 dereferenceable(472) %0, ptr noundef nonnull align 8 dereferenceable(72) %1, ptr noundef nonnull align 8 dereferenceable(72) %2, ptr nocapture noundef nonnull readonly align 8 dereferenceable(64) %3) unnamed_addr #0 align 2 personality ptr @__gxx_personality_v0 {
  %5 = alloca %"class.ncnn::Mat", align 8
  %6 = getelementptr inbounds nuw i8, ptr %5, i64 8
  %7 = getelementptr inbounds nuw i8, ptr %5, i64 16
  %8 = getelementptr inbounds nuw i8, ptr %5, i64 32
  %9 = getelementptr inbounds nuw i8, ptr %5, i64 44
  %10 = getelementptr inbounds nuw i8, ptr %5, i64 56
  %11 = getelementptr inbounds nuw i8, ptr %5, i64 64
  store i64 0, ptr %11, align 8
  %12 = getelementptr inbounds nuw i8, ptr %0, i64 212
  call void @llvm.memset.p0.i64(ptr noundef nonnull align 8 dereferenceable(28) %5, i8 0, i64 28, i1 false)
  call void @llvm.memset.p0.i64(ptr noundef nonnull align 8 dereferenceable(28) %8, i8 0, i64 28, i1 false)
  %13 = load i32, ptr %12, align 4
  invoke void @_ZNK4ncnn13Convolution1D12make_paddingERKNS_3MatERS1_iRKNS_6OptionE(ptr noundef nonnull readonly align 8 dereferenceable(472) %0, ptr noundef nonnull align 8 dereferenceable(72) %1, ptr noundef nonnull align 8 dereferenceable(72) %5, i32 noundef %13, ptr noundef nonnull readonly align 8 dereferenceable(64) %3)
          to label %_ZNK4ncnn13Convolution1D12make_paddingERKNS_3MatERS1_RKNS_6OptionE.exit unwind label %22

_ZNK4ncnn13Convolution1D12make_paddingERKNS_3MatERS1_RKNS_6OptionE.exit: ; preds = %4
  %14 = load ptr, ptr %5, align 8
  %15 = icmp eq ptr %14, null
  br i1 %15, label %.critedge, label %16

16:                                               ; preds = %_ZNK4ncnn13Convolution1D12make_paddingERKNS_3MatERS1_RKNS_6OptionE.exit
  %17 = load i64, ptr %11, align 8
  %18 = load i32, ptr %10, align 8
  %19 = sext i32 %18 to i64
  %20 = mul i64 %17, %19
  %21 = icmp eq i64 %20, 0
  br i1 %21, label %.critedge, label %41

22:                                               ; preds = %4, %41
  %23 = landingpad { ptr, i32 }
          cleanup
  %24 = load ptr, ptr %6, align 8
  %.not = icmp eq ptr %24, null
  br i1 %.not, label %37, label %25

25:                                               ; preds = %22
  %26 = atomicrmw add ptr %24, i32 -1 acq_rel, align 4
  %27 = icmp eq i32 %26, 1
  br i1 %27, label %28, label %37

28:                                               ; preds = %25
  %29 = load ptr, ptr %8, align 8
  %.not42 = icmp eq ptr %29, null
  %30 = load ptr, ptr %5, align 8
  br i1 %.not42, label %35, label %31

31:                                               ; preds = %28
  %32 = load ptr, ptr %29, align 8
  %33 = getelementptr inbounds i8, ptr %32, i64 24
  %34 = load ptr, ptr %33, align 8
  invoke void %34(ptr noundef nonnull align 8 dereferenceable(8) %29, ptr noundef %30)
          to label %37 unwind label %38

35:                                               ; preds = %28
  %.not43 = icmp eq ptr %30, null
  br i1 %.not43, label %37, label %36

36:                                               ; preds = %35
  call void @free(ptr noundef nonnull %30) #12
  br label %37

37:                                               ; preds = %31, %36, %35, %25, %22
  resume { ptr, i32 } %23

38:                                               ; preds = %31
  %39 = landingpad { ptr, i32 }
          catch ptr null
  %40 = extractvalue { ptr, i32 } %39, 0
  call void @__clang_call_terminate(ptr %40) #13
  unreachable

41:                                               ; preds = %16
  %42 = load i32, ptr %9, align 4
  %43 = load i64, ptr %7, align 8
  %44 = getelementptr inbounds nuw i8, ptr %0, i64 216
  %45 = load i32, ptr %44, align 8
  %46 = load i32, ptr %12, align 4
  %47 = add nsw i32 %46, -1
  %48 = mul nsw i32 %47, %45
  %.neg = xor i32 %48, -1
  %49 = add i32 %42, %.neg
  %50 = getelementptr inbounds nuw i8, ptr %0, i64 220
  %51 = load i32, ptr %50, align 4
  %52 = sdiv i32 %49, %51
  %53 = add nsw i32 %52, 1
  %54 = getelementptr inbounds nuw i8, ptr %0, i64 208
  %55 = load i32, ptr %54, align 8
  %56 = getelementptr inbounds nuw i8, ptr %3, i64 8
  %57 = load ptr, ptr %56, align 8
  invoke void @_ZN4ncnn3Mat6createEiimPNS_9AllocatorE(ptr noundef nonnull align 8 dereferenceable(72) %2, i32 noundef %53, i32 noundef %55, i64 noundef %43, ptr noundef %57)
          to label %58 unwind label %22

58:                                               ; preds = %41
  %59 = load ptr, ptr %2, align 8
  %60 = icmp eq ptr %59, null
  br i1 %60, label %.critedge, label %61

61:                                               ; preds = %58
  %62 = getelementptr inbounds nuw i8, ptr %2, i64 64
  %63 = load i64, ptr %62, align 8
  %64 = getelementptr inbounds nuw i8, ptr %2, i64 56
  %65 = load i32, ptr %64, align 8
  %66 = sext i32 %65 to i64
  %67 = mul i64 %63, %66
  %68 = icmp eq i64 %67, 0
  br i1 %68, label %.critedge, label %69

69:                                               ; preds = %61
  %70 = getelementptr inbounds nuw i8, ptr %0, i64 328
  %71 = getelementptr inbounds nuw i8, ptr %0, i64 400
  %72 = load i32, ptr %12, align 4
  %73 = load i32, ptr %50, align 4
  %74 = load i32, ptr %44, align 8
  %75 = getelementptr inbounds nuw i8, ptr %0, i64 244
  %76 = load i32, ptr %75, align 4
  %77 = getelementptr inbounds nuw i8, ptr %0, i64 248
  call fastcc void @_ZN4ncnnL13convolution1dERKNS_3MatERS0_S2_S2_iiiiS2_RKNS_6OptionE(ptr noundef nonnull align 8 dereferenceable(72) %5, ptr noundef nonnull align 8 dereferenceable(72) %2, ptr noundef nonnull align 8 dereferenceable(72) %70, ptr noundef nonnull align 8 dereferenceable(72) %71, i32 noundef %72, i32 noundef %73, i32 noundef %74, i32 noundef %76, ptr noundef nonnull align 8 dereferenceable(72) %77)
  br label %.critedge

.critedge:                                        ; preds = %69, %61, %58, %16, %_ZNK4ncnn13Convolution1D12make_paddingERKNS_3MatERS1_RKNS_6OptionE.exit
  %.0 = phi i32 [ -100, %_ZNK4ncnn13Convolution1D12make_paddingERKNS_3MatERS1_RKNS_6OptionE.exit ], [ -100, %16 ], [ -100, %58 ], [ -100, %61 ], [ 0, %69 ]
  %78 = load ptr, ptr %6, align 8
  %.not44 = icmp eq ptr %78, null
  br i1 %.not44, label %91, label %79

79:                                               ; preds = %.critedge
  %80 = atomicrmw add ptr %78, i32 -1 acq_rel, align 4
  %81 = icmp eq i32 %80, 1
  br i1 %81, label %82, label %91

82:                                               ; preds = %79
  %83 = load ptr, ptr %8, align 8
  %.not45 = icmp eq ptr %83, null
  %84 = load ptr, ptr %5, align 8
  br i1 %.not45, label %89, label %85

85:                                               ; preds = %82
  %86 = load ptr, ptr %83, align 8
  %87 = getelementptr inbounds i8, ptr %86, i64 24
  %88 = load ptr, ptr %87, align 8
  invoke void %88(ptr noundef nonnull align 8 dereferenceable(8) %83, ptr noundef %84)
          to label %91 unwind label %92

89:                                               ; preds = %82
  %.not46 = icmp eq ptr %84, null
  br i1 %.not46, label %91, label %90

90:                                               ; preds = %89
  call void @free(ptr noundef nonnull %84) #12
  br label %91

91:                                               ; preds = %85, %90, %89, %79, %.critedge
  ret i32 %.0

92:                                               ; preds = %85
  %93 = landingpad { ptr, i32 }
          catch ptr null
  %94 = extractvalue { ptr, i32 } %93, 0
  call void @__clang_call_terminate(ptr %94) #13
  unreachable
}